target datalayout = "e-m:e-p270:32:32-p271:32:32-p272:64:64-i64:64-i128:128-f80:128-n8:16:32:64-S128"
target triple = "x86_64-pc-linux-gnu"

%struct.Abc_Obj_t_ = type { ptr, ptr, i32, i32, %struct.Vec_Int_t_, %struct.Vec_Int_t_, %union.anon, %union.anon.0 }
%struct.Vec_Int_t_ = type { i32, i32, ptr }
%union.anon = type { ptr }
%union.anon.0 = type { ptr }
%struct.Abc_Ntk_t_ = type { i32, i32, ptr, ptr, ptr, ptr, ptr, ptr, ptr, ptr, ptr, ptr, ptr, [11 x i32], i32, i32, i32, i32, ptr, i32, ptr, ptr, i32, i32, i32, double, i32, %struct.Vec_Int_t_, ptr, ptr, ptr, ptr, ptr, float, i32, ptr, ptr, ptr, ptr, ptr, ptr, ptr, ptr, ptr, ptr, ptr, ptr, ptr, ptr, ptr, ptr, ptr, ptr, ptr, ptr, ptr }
%struct.Vec_Ptr_t_ = type { i32, i32, ptr }

; Function Attrs: nounwind uwtable
define internal i32 @Abc_ObjFaninC1(ptr noundef %0) #0 {
  %2 = alloca ptr, align 8
  store ptr %0, ptr %2, align 8
  %3 = load ptr, ptr %2, align 8
  %4 = getelementptr inbounds %struct.Abc_Obj_t_, ptr %3, i32 0, i32 3
  %5 = load i32, ptr %4, align 4
  %6 = lshr i32 %5, 11
  %7 = and i32 %6, 1
  ret i32 %7
}

; Function Attrs: nounwind uwtable
define internal i32 @Abc_ObjFaninC0(ptr noundef %0) #0 {
  %2 = alloca ptr, align 8
  store ptr %0, ptr %2, align 8
  %3 = load ptr, ptr %2, align 8
  %4 = getelementptr inbounds %struct.Abc_Obj_t_, ptr %3, i32 0, i32 3
  %5 = load i32, ptr %4, align 4
  %6 = lshr i32 %5, 10
  %7 = and i32 %6, 1
  ret i32 %7
}

; Function Attrs: nounwind uwtable
define internal ptr @Abc_ObjFanin1(ptr noundef %0) #0 {
  %2 = alloca ptr, align 8
  store ptr %0, ptr %2, align 8
  %3 = load ptr, ptr %2, align 8
  %4 = getelementptr inbounds %struct.Abc_Obj_t_, ptr %3, i32 0, i32 0
  %5 = load ptr, ptr %4, align 8
  %6 = getelementptr inbounds %struct.Abc_Ntk_t_, ptr %5, i32 0, i32 5
  %7 = load ptr, ptr %6, align 8
  %8 = getelementptr inbounds %struct.Vec_Ptr_t_, ptr %7, i32 0, i32 2
  %9 = load ptr, ptr %8, align 8
  %10 = load ptr, ptr %2, align 8
  %11 = getelementptr inbounds %struct.Abc_Obj_t_, ptr %10, i32 0, i32 4
  %12 = getelementptr inbounds %struct.Vec_Int_t_, ptr %11, i32 0, i32 2
  %13 = load ptr, ptr %12, align 8
  %14 = getelementptr inbounds i32, ptr %13, i64 1
  %15 = load i32, ptr %14, align 4
  %16 = sext i32 %15 to i64
  %17 = getelementptr inbounds ptr, ptr %9, i64 %16
  %18 = load ptr, ptr %17, align 8
  ret ptr %18
}

; Function Attrs: nounwind uwtable
define internal ptr @Abc_ObjFanin0(ptr noundef %0) #0 {
  %2 = alloca ptr, align 8
  store ptr %0, ptr %2, align 8
  %3 = load ptr, ptr %2, align 8
  %4 = getelementptr inbounds %struct.Abc_Obj_t_, ptr %3, i32 0, i32 0
  %5 = load ptr, ptr %4, align 8
  %6 = getelementptr inbounds %struct.Abc_Ntk_t_, ptr %5, i32 0, i32 5
  %7 = load ptr, ptr %6, align 8
  %8 = getelementptr inbounds %struct.Vec_Ptr_t_, ptr %7, i32 0, i32 2
  %9 = load ptr, ptr %8, align 8
  %10 = load ptr, ptr %2, align 8
  %11 = getelementptr inbounds %struct.Abc_Obj_t_, ptr %10, i32 0, i32 4
  %12 = getelementptr inbounds %struct.Vec_Int_t_, ptr %11, i32 0, i32 2
  %13 = load ptr, ptr %12, align 8
  %14 = getelementptr inbounds i32, ptr %13, i64 0
  %15 = load i32, ptr %14, align 4
  %16 = sext i32 %15 to i64
  %17 = getelementptr inbounds ptr, ptr %9, i64 %16
  %18 = load ptr, ptr %17, align 8
  ret ptr %18
}

; Function Attrs: nounwind uwtable
define internal i32 @Abc_ObjIsCi(ptr noundef %0) #0 {
  %2 = alloca ptr, align 8
  store ptr %0, ptr %2, align 8
  %3 = load ptr, ptr %2, align 8
  %4 = getelementptr inbounds %struct.Abc_Obj_t_, ptr %3, i32 0, i32 3
  %5 = load i32, ptr %4, align 4
  %6 = and i32 %5, 15
  %7 = icmp eq i32 %6, 2
  br i1 %7, label %14, label %8

8:                                                ; preds = %1
  %9 = load ptr, ptr %2, align 8
  %10 = getelementptr inbounds %struct.Abc_Obj_t_, ptr %9, i32 0, i32 3
  %11 = load i32, ptr %10, align 4
  %12 = and i32 %11, 15
  %13 = icmp eq i32 %12, 5
  br label %14

14:                                               ; preds = %8, %1
  %15 = phi i1 [ true, %1 ], [ %13, %8 ]
  %16 = zext i1 %15 to i32
  ret i32 %16
}

; Function Attrs: nounwind uwtable
define internal i32 @Abc_NodeRefDerefStop(ptr noundef %0, i32 noundef %1) #0 {
  %3 = alloca i32, align 4
  %4 = alloca ptr, align 8
  %5 = alloca i32, align 4
  %6 = alloca ptr, align 8
  %7 = alloca ptr, align 8
  %8 = alloca i32, align 4
  store ptr %0, ptr %4, align 8
  store i32 %1, ptr %5, align 4
  %9 = load ptr, ptr %4, align 8
  %10 = call i32 @Abc_ObjIsCi(ptr noundef %9)
  %11 = icmp ne i32 %10, 0
  br i1 %11, label %12, label %13

12:                                               ; preds = %2
  store i32 0, ptr %3, align 4
  br label %92

13:                                               ; preds = %2
  %14 = load ptr, ptr %4, align 8
  %15 = call ptr @Abc_ObjFanin0(ptr noundef %14)
  store ptr %15, ptr %6, align 8
  %16 = load ptr, ptr %4, align 8
  %17 = call ptr @Abc_ObjFanin1(ptr noundef %16)
  store ptr %17, ptr %7, align 8
  store i32 1, ptr %8, align 4
  %18 = load i32, ptr %5, align 4
  %19 = icmp ne i32 %18, 0
  br i1 %19, label %20, label %55

20:                                               ; preds = %13
  %21 = load ptr, ptr %4, align 8
  %22 = call i32 @Abc_ObjFaninC0(ptr noundef %21)
  %23 = icmp ne i32 %22, 0
  br i1 %23, label %37, label %24

24:                                               ; preds = %20
  %25 = load ptr, ptr %6, align 8
  %26 = getelementptr inbounds %struct.Abc_Obj_t_, ptr %25, i32 0, i32 5
  %27 = getelementptr inbounds %struct.Vec_Int_t_, ptr %26, i32 0, i32 1
  %28 = load i32, ptr %27, align 4
  %29 = add nsw i32 %28, 1
  store i32 %29, ptr %27, align 4
  %30 = icmp eq i32 %28, 0
  br i1 %30, label %31, label %37

31:                                               ; preds = %24
  %32 = load ptr, ptr %6, align 8
  %33 = load i32, ptr %5, align 4
  %34 = call i32 @Abc_NodeRefDerefStop(ptr noundef %32, i32 noundef %33)
  %35 = load i32, ptr %8, align 4
  %36 = add nsw i32 %35, %34
  store i32 %36, ptr %8, align 4
  br label %37

37:                                               ; preds = %31, %24, %20
  %38 = load ptr, ptr %4, align 8
  %39 = call i32 @Abc_ObjFaninC1(ptr noundef %38)
  %40 = icmp ne i32 %39, 0
  br i1 %40, label %54, label %41

41:                                               ; preds = %37
  %42 = load ptr, ptr %7, align 8
  %43 = getelementptr inbounds %struct.Abc_Obj_t_, ptr %42, i32 0, i32 5
  %44 = getelementptr inbounds %struct.Vec_Int_t_, ptr %43, i32 0, i32 1
  %45 = load i32, ptr %44, align 4
  %46 = add nsw i32 %45, 1
  store i32 %46, ptr %44, align 4
  %47 = icmp eq i32 %45, 0
  br i1 %47, label %48, label %54

48:                                               ; preds = %41
  %49 = load ptr, ptr %7, align 8
  %50 = load i32, ptr %5, align 4
  %51 = call i32 @Abc_NodeRefDerefStop(ptr noundef %49, i32 noundef %50)
  %52 = load i32, ptr %8, align 4
  %53 = add nsw i32 %52, %51
  store i32 %53, ptr %8, align 4
  br label %54

54:                                               ; preds = %48, %41, %37
  br label %90

55:                                               ; preds = %13
  %56 = load ptr, ptr %4, align 8
  %57 = call i32 @Abc_ObjFaninC0(ptr noundef %56)
  %58 = icmp ne i32 %57, 0
  br i1 %58, label %72, label %59

59:                                               ; preds = %55
  %60 = load ptr, ptr %6, align 8
  %61 = getelementptr inbounds %struct.Abc_Obj_t_, ptr %60, i32 0, i32 5
  %62 = getelementptr inbounds %struct.Vec_Int_t_, ptr %61, i32 0, i32 1
  %63 = load i32, ptr %62, align 4
  %64 = add nsw i32 %63, -1
  store i32 %64, ptr %62, align 4
  %65 = icmp eq i32 %64, 0
  br i1 %65, label %66, label %72

66:                                               ; preds = %59
  %67 = load ptr, ptr %6, align 8
  %68 = load i32, ptr %5, align 4
  %69 = call i32 @Abc_NodeRefDerefStop(ptr noundef %67, i32 noundef %68)
  %70 = load i32, ptr %8, align 4
  %71 = add nsw i32 %70, %69
  store i32 %71, ptr %8, align 4
  br label %72

72:                                               ; preds = %66, %59, %55
  %73 = load ptr, ptr %4, align 8
  %74 = call i32 @Abc_ObjFaninC1(ptr noundef %73)
  %75 = icmp ne i32 %74, 0
  br i1 %75, label %89, label %76

76:                                               ; preds = %72
  %77 = load ptr, ptr %7, align 8
  %78 = getelementptr inbounds %struct.Abc_Obj_t_, ptr %77, i32 0, i32 5
  %79 = getelementptr inbounds %struct.Vec_Int_t_, ptr %78, i32 0, i32 1
  %80 = load i32, ptr %79, align 4
  %81 = add nsw i32 %80, -1
  store i32 %81, ptr %79, align 4
  %82 = icmp eq i32 %81, 0
  br i1 %82, label %83, label %89

83:                                               ; preds = %76
  %84 = load ptr, ptr %7, align 8
  %85 = load i32, ptr %5, align 4
  %86 = call i32 @Abc_NodeRefDerefStop(ptr noundef %84, i32 noundef %85)
  %87 = load i32, ptr %8, align 4
  %88 = add nsw i32 %87, %86
  store i32 %88, ptr %8, align 4
  br label %89

89:                                               ; preds = %83, %76, %72
  br label %90

90:                                               ; preds = %89, %54
  %91 = load i32, ptr %8, align 4
  store i32 %91, ptr %3, align 4
  br label %92

92:                                               ; preds = %90, %12
  %93 = load i32, ptr %3, align 4
  ret i32 %93
}