; Function Attrs: nofree nosync nounwind memory(readwrite, inaccessiblemem: none) uwtable
define internal fastcc i32 @Abc_NodeRefDerefStop(ptr noundef readonly captures(none) %0, i32 noundef range(i32 0, 2) %1) unnamed_addr #1 {
  br label %tailrecurse79

tailrecurse79:                                    ; preds = %52, %2
  %accumulator.tr82 = phi i32 [ 0, %2 ], [ %accumulator.ret.tr, %52 ]
  %.tr80 = phi ptr [ %0, %2 ], [ %16, %52 ]
  %.tr81 = phi i32 [ %1, %2 ], [ 0, %52 ]
  %3 = icmp eq i32 %.tr81, 0
  br label %tailrecurse

tailrecurse:                                      ; preds = %34, %tailrecurse79
  %accumulator.tr = phi i32 [ 0, %tailrecurse79 ], [ %35, %34 ]
  %.tr = phi ptr [ %.tr80, %tailrecurse79 ], [ %16, %34 ]
  %.tr43 = phi i1 [ %3, %tailrecurse79 ], [ false, %34 ]
  %4 = getelementptr i8, ptr %.tr, i64 20
  %.val = load i32, ptr %4, align 4
  %5 = and i32 %.val, 15
  switch i32 %5, label %6 [
    i32 5, label %.loopexit
    i32 2, label %.loopexit
  ]

6:                                                ; preds = %tailrecurse
  %.val33 = load ptr, ptr %.tr, align 8
  %7 = getelementptr i8, ptr %.tr, i64 32
  %.val34 = load ptr, ptr %7, align 8
  %8 = getelementptr i8, ptr %.val33, i64 32
  %.val33.val = load ptr, ptr %8, align 8
  %.val34.val = load i32, ptr %.val34, align 4
  %9 = getelementptr i8, ptr %.val33.val, i64 8
  %.val33.val.val = load ptr, ptr %9, align 8
  %10 = sext i32 %.val34.val to i64
  %11 = getelementptr inbounds ptr, ptr %.val33.val.val, i64 %10
  %12 = load ptr, ptr %11, align 8
  %13 = getelementptr i8, ptr %.val34, i64 4
  %.val36.val = load i32, ptr %13, align 4
  %14 = sext i32 %.val36.val to i64
  %15 = getelementptr inbounds ptr, ptr %.val33.val.val, i64 %14
  %16 = load ptr, ptr %15, align 8
  %17 = and i32 %.val, 1024
  %.not29 = icmp eq i32 %17, 0
  br i1 %.tr43, label %36, label %18

18:                                               ; preds = %6
  br i1 %.not29, label %19, label %27

19:                                               ; preds = %18
  %20 = getelementptr inbounds nuw i8, ptr %12, i64 44
  %21 = load i32, ptr %20, align 4
  %22 = add nsw i32 %21, 1
  store i32 %22, ptr %20, align 4
  %23 = icmp eq i32 %21, 0
  br i1 %23, label %24, label %27

24:                                               ; preds = %19
  %25 = tail call fastcc i32 @Abc_NodeRefDerefStop(ptr noundef nonnull %12, i32 noundef 1)
  %26 = add nsw i32 %25, 1
  br label %27

27:                                               ; preds = %24, %19, %18
  %.0 = phi i32 [ 1, %18 ], [ %26, %24 ], [ 1, %19 ]
  %.val39 = load i32, ptr %4, align 4
  %28 = and i32 %.val39, 2048
  %.not32 = icmp eq i32 %28, 0
  br i1 %.not32, label %29, label %.loopexit

29:                                               ; preds = %27
  %30 = getelementptr inbounds nuw i8, ptr %16, i64 44
  %31 = load i32, ptr %30, align 4
  %32 = add nsw i32 %31, 1
  store i32 %32, ptr %30, align 4
  %33 = icmp eq i32 %31, 0
  br i1 %33, label %34, label %.loopexit

34:                                               ; preds = %29
  %35 = add nsw i32 %.0, %accumulator.tr
  br label %tailrecurse

36:                                               ; preds = %6
  br i1 %.not29, label %37, label %45

37:                                               ; preds = %36
  %38 = getelementptr inbounds nuw i8, ptr %12, i64 44
  %39 = load i32, ptr %38, align 4
  %40 = add nsw i32 %39, -1
  store i32 %40, ptr %38, align 4
  %41 = icmp eq i32 %40, 0
  br i1 %41, label %42, label %45

42:                                               ; preds = %37
  %43 = tail call fastcc i32 @Abc_NodeRefDerefStop(ptr noundef nonnull %12, i32 noundef 0)
  %44 = add nsw i32 %43, 1
  br label %45

45:                                               ; preds = %42, %37, %36
  %.2 = phi i32 [ 1, %36 ], [ %44, %42 ], [ 1, %37 ]
  %.val40 = load i32, ptr %4, align 4
  %46 = and i32 %.val40, 2048
  %.not30 = icmp eq i32 %46, 0
  br i1 %.not30, label %47, label %.loopexit

47:                                               ; preds = %45
  %48 = getelementptr inbounds nuw i8, ptr %16, i64 44
  %49 = load i32, ptr %48, align 4
  %50 = add nsw i32 %49, -1
  store i32 %50, ptr %48, align 4
  %51 = icmp eq i32 %50, 0
  br i1 %51, label %52, label %.loopexit

52:                                               ; preds = %47
  %53 = add i32 %.2, %accumulator.tr
  %accumulator.ret.tr = add i32 %53, %accumulator.tr82
  br label %tailrecurse79

.loopexit:                                        ; preds = %tailrecurse, %tailrecurse, %29, %27, %47, %45
  %.025 = phi i32 [ %.2, %45 ], [ %.2, %47 ], [ 0, %tailrecurse ], [ %.0, %29 ], [ %.0, %27 ], [ 0, %tailrecurse ]
  %accumulator.ret.tr44 = add nsw i32 %.025, %accumulator.tr
  %accumulator.ret.tr83 = add i32 %accumulator.ret.tr44, %accumulator.tr82
  ret i32 %accumulator.ret.tr83
}